target datalayout = "e-m:e-p270:32:32-p271:32:32-p272:64:64-i64:64-i128:128-f80:128-n8:16:32:64-S128"
target triple = "x86_64-pc-linux-gnu"

%"class.std::locale" = type { ptr }

; Function Attrs: mustprogress uwtable
define linkonce_odr hidden void @_ZN5boost6locale15generic_codecvtIwNS0_12utf8_codecvtIwEELi4EEC2Em(ptr noundef nonnull align 8 dereferenceable(24) %0, i64 noundef %1) unnamed_addr #2 comdat align 2 {
  %3 = alloca ptr, align 8
  %4 = alloca i64, align 8
  store ptr %0, ptr %3, align 8, !tbaa !3
  store i64 %1, ptr %4, align 8, !tbaa !17
  %5 = load ptr, ptr %3, align 8
  %6 = load i64, ptr %4, align 8, !tbaa !17
  call void @_ZNSt7codecvtIwc11__mbstate_tEC2Em(ptr noundef nonnull align 8 dereferenceable(24) %5, i64 noundef %6)
  store ptr getelementptr inbounds inrange(-16, 72) ({ [11 x ptr] }, ptr @_ZTVN5boost6locale15generic_codecvtIwNS0_12utf8_codecvtIwEELi4EEE, i32 0, i32 0, i32 2), ptr %5, align 8, !tbaa !15
  ret void
}

; Function Attrs: mustprogress uwtable
define linkonce_odr hidden void @_ZN5boost6locale15generic_codecvtIcNS0_12utf8_codecvtIcEELi1EEC2Em(ptr noundef nonnull align 8 dereferenceable(24) %0, i64 noundef %1) unnamed_addr #2 comdat align 2 {
  %3 = alloca ptr, align 8
  %4 = alloca i64, align 8
  store ptr %0, ptr %3, align 8, !tbaa !3
  store i64 %1, ptr %4, align 8, !tbaa !17
  %5 = load ptr, ptr %3, align 8
  %6 = load i64, ptr %4, align 8, !tbaa !17
  call void @_ZNSt7codecvtIcc11__mbstate_tEC2Em(ptr noundef nonnull align 8 dereferenceable(24) %5, i64 noundef %6)
  store ptr getelementptr inbounds inrange(-16, 72) ({ [11 x ptr] }, ptr @_ZTVN5boost6locale15generic_codecvtIcNS0_12utf8_codecvtIcEELi1EEE, i32 0, i32 0, i32 2), ptr %5, align 8, !tbaa !15
  ret void
}

; Function Attrs: mustprogress uwtable
define linkonce_odr hidden void @_ZN5boost6locale12utf8_codecvtIwEC2Em(ptr noundef nonnull align 8 dereferenceable(24) %0, i64 noundef %1) unnamed_addr #2 comdat align 2 {
  %3 = alloca ptr, align 8
  %4 = alloca i64, align 8
  store ptr %0, ptr %3, align 8, !tbaa !3
  store i64 %1, ptr %4, align 8, !tbaa !17
  %5 = load ptr, ptr %3, align 8
  %6 = load i64, ptr %4, align 8, !tbaa !17
  call void @_ZN5boost6locale15generic_codecvtIwNS0_12utf8_codecvtIwEELi4EEC2Em(ptr noundef nonnull align 8 dereferenceable(24) %5, i64 noundef %6)
  store ptr getelementptr inbounds inrange(-16, 72) ({ [11 x ptr] }, ptr @_ZTVN5boost6locale12utf8_codecvtIwEE, i32 0, i32 0, i32 2), ptr %5, align 8, !tbaa !15
  ret void
}

; Function Attrs: mustprogress uwtable
define linkonce_odr hidden void @_ZN5boost6locale12utf8_codecvtIcEC2Em(ptr noundef nonnull align 8 dereferenceable(24) %0, i64 noundef %1) unnamed_addr #2 comdat align 2 {
  %3 = alloca ptr, align 8
  %4 = alloca i64, align 8
  store ptr %0, ptr %3, align 8, !tbaa !3
  store i64 %1, ptr %4, align 8, !tbaa !17
  %5 = load ptr, ptr %3, align 8
  %6 = load i64, ptr %4, align 8, !tbaa !17
  call void @_ZN5boost6locale15generic_codecvtIcNS0_12utf8_codecvtIcEELi1EEC2Em(ptr noundef nonnull align 8 dereferenceable(24) %5, i64 noundef %6)
  store ptr getelementptr inbounds inrange(-16, 72) ({ [11 x ptr] }, ptr @_ZTVN5boost6locale12utf8_codecvtIcEE, i32 0, i32 0, i32 2), ptr %5, align 8, !tbaa !15
  ret void
}

; Function Attrs: mustprogress uwtable
define void @_ZN5boost6locale4util19create_utf8_codecvtERKSt6localeNS0_12char_facet_tE(ptr dead_on_unwind noalias writable sret(%"class.std::locale") align 8 %0, ptr noundef nonnull align 8 dereferenceable(8) %1, i32 noundef %2) #2 personality ptr @__gxx_personality_v0 {
  %4 = alloca ptr, align 8
  %5 = alloca ptr, align 8
  %6 = alloca i32, align 4
  %7 = alloca ptr, align 8
  %8 = alloca i32, align 4
  store ptr %0, ptr %4, align 8
  store ptr %1, ptr %5, align 8, !tbaa !3
  store i32 %2, ptr %6, align 4, !tbaa !13
  %9 = load i32, ptr %6, align 4, !tbaa !13
  switch i32 %9, label %26 [
    i32 0, label %26
    i32 1, label %10
    i32 2, label %18
  ]

10:                                               ; preds = %3
  %11 = load ptr, ptr %5, align 8, !tbaa !3
  %12 = call noalias noundef nonnull ptr @_Znwm(i64 noundef 24) #23
  invoke void @_ZN5boost6locale12utf8_codecvtIcEC2Em(ptr noundef nonnull align 8 dereferenceable(24) %12, i64 noundef 0)
          to label %13 unwind label %14

13:                                               ; preds = %10
  call void @_ZNSt6localeC2IN5boost6locale12utf8_codecvtIcEEEERKS_PT_(ptr noundef nonnull align 8 dereferenceable(8) %0, ptr noundef nonnull align 8 dereferenceable(8) %11, ptr noundef %12)
  br label %28

14:                                               ; preds = %10
  %15 = landingpad { ptr, i32 }
          cleanup
  %16 = extractvalue { ptr, i32 } %15, 0
  store ptr %16, ptr %7, align 8
  %17 = extractvalue { ptr, i32 } %15, 1
  store i32 %17, ptr %8, align 4
  call void @_ZdlPvm(ptr noundef %12, i64 noundef 24) #20
  br label %29

18:                                               ; preds = %3
  %19 = load ptr, ptr %5, align 8, !tbaa !3
  %20 = call noalias noundef nonnull ptr @_Znwm(i64 noundef 24) #23
  invoke void @_ZN5boost6locale12utf8_codecvtIwEC2Em(ptr noundef nonnull align 8 dereferenceable(24) %20, i64 noundef 0)
          to label %21 unwind label %22

21:                                               ; preds = %18
  call void @_ZNSt6localeC2IN5boost6locale12utf8_codecvtIwEEEERKS_PT_(ptr noundef nonnull align 8 dereferenceable(8) %0, ptr noundef nonnull align 8 dereferenceable(8) %19, ptr noundef %20)
  br label %28

22:                                               ; preds = %18
  %23 = landingpad { ptr, i32 }
          cleanup
  %24 = extractvalue { ptr, i32 } %23, 0
  store ptr %24, ptr %7, align 8
  %25 = extractvalue { ptr, i32 } %23, 1
  store i32 %25, ptr %8, align 4
  call void @_ZdlPvm(ptr noundef %20, i64 noundef 24) #20
  br label %29

26:                                               ; preds = %3, %3
  %27 = load ptr, ptr %5, align 8, !tbaa !3
  call void @_ZNSt6localeC1ERKS_(ptr noundef nonnull align 8 dereferenceable(8) %0, ptr noundef nonnull align 8 dereferenceable(8) %27) #19
  br label %28

28:                                               ; preds = %26, %21, %13
  ret void

29:                                               ; preds = %22, %14
  %30 = load ptr, ptr %7, align 8
  %31 = load i32, ptr %8, align 4
  %32 = insertvalue { ptr, i32 } poison, ptr %30, 0
  %33 = insertvalue { ptr, i32 } %32, i32 %31, 1
  resume { ptr, i32 } %33
}