; Function Attrs: mustprogress uwtable
define void @_ZN5boost6locale4util19create_utf8_codecvtERKSt6localeNS0_12char_facet_tE(ptr dead_on_unwind noalias writable sret(%"class.std::locale") align 8 %0, ptr noundef nonnull align 8 dereferenceable(8) %1, i32 noundef %2) local_unnamed_addr #2 personality ptr @__gxx_personality_v0 {
  switch i32 %2, label %14 [
    i32 2, label %9
    i32 1, label %4
  ]

4:                                                ; preds = %3
  %5 = tail call noalias noundef nonnull dereferenceable(24) ptr @_Znwm(i64 noundef 24) #21
  invoke void @_ZNSt7codecvtIcc11__mbstate_tEC2Em(ptr noundef nonnull align 8 dereferenceable(24) %5, i64 noundef 0)
          to label %6 unwind label %7

6:                                                ; preds = %4
  store ptr getelementptr inbounds inrange(-16, 72) (i8, ptr @_ZTVN5boost6locale12utf8_codecvtIcEE, i64 16), ptr %5, align 8, !tbaa !22
  tail call void @_ZNSt6localeC2IN5boost6locale12utf8_codecvtIcEEEERKS_PT_(ptr noundef nonnull align 8 dereferenceable(8) %0, ptr noundef nonnull align 8 dereferenceable(8) %1, ptr noundef nonnull %5)
  br label %15

7:                                                ; preds = %4
  %8 = landingpad { ptr, i32 }
          cleanup
  br label %16

9:                                                ; preds = %3
  %10 = tail call noalias noundef nonnull dereferenceable(24) ptr @_Znwm(i64 noundef 24) #21
  invoke void @_ZNSt7codecvtIwc11__mbstate_tEC2Em(ptr noundef nonnull align 8 dereferenceable(24) %10, i64 noundef 0)
          to label %11 unwind label %12

11:                                               ; preds = %9
  store ptr getelementptr inbounds inrange(-16, 72) (i8, ptr @_ZTVN5boost6locale12utf8_codecvtIwEE, i64 16), ptr %10, align 8, !tbaa !22
  tail call void @_ZNSt6localeC2IN5boost6locale12utf8_codecvtIwEEEERKS_PT_(ptr noundef nonnull align 8 dereferenceable(8) %0, ptr noundef nonnull align 8 dereferenceable(8) %1, ptr noundef nonnull %10)
  br label %15

12:                                               ; preds = %9
  %13 = landingpad { ptr, i32 }
          cleanup
  br label %16

14:                                               ; preds = %3
  tail call void @_ZNSt6localeC1ERKS_(ptr noundef nonnull align 8 dereferenceable(8) %0, ptr noundef nonnull align 8 dereferenceable(8) %1) #19
  br label %15

15:                                               ; preds = %14, %11, %6
  ret void

16:                                               ; preds = %12, %7
  %.sink = phi ptr [ %10, %12 ], [ %5, %7 ]
  %.pn = phi { ptr, i32 } [ %13, %12 ], [ %8, %7 ]
  tail call void @_ZdlPvm(ptr noundef nonnull %.sink, i64 noundef 24) #20
  resume { ptr, i32 } %.pn
}